target datalayout = "e-m:e-p270:32:32-p271:32:32-p272:64:64-i64:64-i128:128-f80:128-n8:16:32:64-S128"
target triple = "x86_64-pc-linux-gnu"

%struct.cook = type { ptr, ptr, ptr, ptr, ptr, ptr, %struct.AudioDSPContext, %struct.GetBitContext, i32, i32, %struct.AVLFG, i32, ptr, ptr, ptr, [13 x %struct.VLC], [7 x %struct.VLC], i32, [31 x float], ptr, [8 x i8], [2048 x float], [1024 x float], [1024 x float], [1060 x float], [5 x ptr], i32, [5 x %struct.COOKSubpacket], [8 x i8] }
%struct.AudioDSPContext = type { ptr, ptr, ptr }
%struct.GetBitContext = type { ptr, ptr, i32, i32, i32 }
%struct.AVLFG = type { [64 x i32], i32 }
%struct.VLC = type { i32, ptr, i32, i32 }
%struct.COOKSubpacket = type { i32, i32, i32, i32, i32, i32, i32, i32, i32, i32, %struct.VLC, i32, i32, i32, i32, i32, [1024 x float], [1024 x float], %struct.cook_gains, %struct.cook_gains, [9 x i32], [9 x i32], [9 x i32], [9 x i32] }
%struct.cook_gains = type { ptr, ptr }

@pow2tab = internal global [127 x float] zeroinitializer, align 16

; Function Attrs: nounwind uwtable
define internal void @interpolate_float(ptr noundef %0, ptr noundef %1, i32 noundef %2, i32 noundef %3) #1 {
  %5 = alloca ptr, align 8
  %6 = alloca ptr, align 8
  %7 = alloca i32, align 4
  %8 = alloca i32, align 4
  %9 = alloca i32, align 4
  %10 = alloca float, align 4
  %11 = alloca float, align 4
  store ptr %0, ptr %5, align 8, !tbaa !29
  store ptr %1, ptr %6, align 8, !tbaa !112
  store i32 %2, ptr %7, align 4, !tbaa !31
  store i32 %3, ptr %8, align 4, !tbaa !31
  call void @llvm.lifetime.start.p0(i64 4, ptr %9) #11
  call void @llvm.lifetime.start.p0(i64 4, ptr %10) #11
  call void @llvm.lifetime.start.p0(i64 4, ptr %11) #11
  %12 = load i32, ptr %7, align 4, !tbaa !31
  %13 = add nsw i32 %12, 63
  %14 = sext i32 %13 to i64
  %15 = getelementptr inbounds [127 x float], ptr @pow2tab, i64 0, i64 %14
  %16 = load float, ptr %15, align 4, !tbaa !108
  store float %16, ptr %10, align 4, !tbaa !108
  %17 = load i32, ptr %7, align 4, !tbaa !31
  %18 = load i32, ptr %8, align 4, !tbaa !31
  %19 = icmp eq i32 %17, %18
  br i1 %19, label %20, label %39

20:                                               ; preds = %4
  store i32 0, ptr %9, align 4, !tbaa !31
  br label %21

21:                                               ; preds = %35, %20
  %22 = load i32, ptr %9, align 4, !tbaa !31
  %23 = load ptr, ptr %5, align 8, !tbaa !29
  %24 = getelementptr inbounds nuw %struct.cook, ptr %23, i32 0, i32 17
  %25 = load i32, ptr %24, align 16, !tbaa !110
  %26 = icmp slt i32 %22, %25
  br i1 %26, label %27, label %38

27:                                               ; preds = %21
  %28 = load float, ptr %10, align 4, !tbaa !108
  %29 = load ptr, ptr %6, align 8, !tbaa !112
  %30 = load i32, ptr %9, align 4, !tbaa !31
  %31 = sext i32 %30 to i64
  %32 = getelementptr inbounds float, ptr %29, i64 %31
  %33 = load float, ptr %32, align 4, !tbaa !108
  %34 = fmul nsz float %33, %28
  store float %34, ptr %32, align 4, !tbaa !108
  br label %35

35:                                               ; preds = %27
  %36 = load i32, ptr %9, align 4, !tbaa !31
  %37 = add nsw i32 %36, 1
  store i32 %37, ptr %9, align 4, !tbaa !31
  br label %21, !llvm.loop !128

38:                                               ; preds = %21
  br label %70

39:                                               ; preds = %4
  %40 = load ptr, ptr %5, align 8, !tbaa !29
  %41 = getelementptr inbounds nuw %struct.cook, ptr %40, i32 0, i32 18
  %42 = load i32, ptr %8, align 4, !tbaa !31
  %43 = load i32, ptr %7, align 4, !tbaa !31
  %44 = sub nsw i32 %42, %43
  %45 = add nsw i32 15, %44
  %46 = sext i32 %45 to i64
  %47 = getelementptr inbounds [31 x float], ptr %41, i64 0, i64 %46
  %48 = load float, ptr %47, align 4, !tbaa !108
  store float %48, ptr %11, align 4, !tbaa !108
  store i32 0, ptr %9, align 4, !tbaa !31
  br label %49

49:                                               ; preds = %66, %39
  %50 = load i32, ptr %9, align 4, !tbaa !31
  %51 = load ptr, ptr %5, align 8, !tbaa !29
  %52 = getelementptr inbounds nuw %struct.cook, ptr %51, i32 0, i32 17
  %53 = load i32, ptr %52, align 16, !tbaa !110
  %54 = icmp slt i32 %50, %53
  br i1 %54, label %55, label %69

55:                                               ; preds = %49
  %56 = load float, ptr %10, align 4, !tbaa !108
  %57 = load ptr, ptr %6, align 8, !tbaa !112
  %58 = load i32, ptr %9, align 4, !tbaa !31
  %59 = sext i32 %58 to i64
  %60 = getelementptr inbounds float, ptr %57, i64 %59
  %61 = load float, ptr %60, align 4, !tbaa !108
  %62 = fmul nsz float %61, %56
  store float %62, ptr %60, align 4, !tbaa !108
  %63 = load float, ptr %11, align 4, !tbaa !108
  %64 = load float, ptr %10, align 4, !tbaa !108
  %65 = fmul nsz float %64, %63
  store float %65, ptr %10, align 4, !tbaa !108
  br label %66

66:                                               ; preds = %55
  %67 = load i32, ptr %9, align 4, !tbaa !31
  %68 = add nsw i32 %67, 1
  store i32 %68, ptr %9, align 4, !tbaa !31
  br label %49, !llvm.loop !129

69:                                               ; preds = %49
  br label %70

70:                                               ; preds = %69, %38
  call void @llvm.lifetime.end.p0(i64 4, ptr %11) #11
  call void @llvm.lifetime.end.p0(i64 4, ptr %10) #11
  call void @llvm.lifetime.end.p0(i64 4, ptr %9) #11
  ret void
}