; Function Attrs: nofree norecurse nosync nounwind memory(read, argmem: readwrite, inaccessiblemem: none) uwtable
define internal void @interpolate_float(ptr noundef readonly captures(none) %0, ptr noundef captures(none) %1, i32 noundef %2, i32 noundef %3) #5 {
  %5 = add nsw i32 %2, 63
  %6 = sext i32 %5 to i64
  %7 = getelementptr inbounds [127 x float], ptr @pow2tab, i64 0, i64 %6
  %8 = load float, ptr %7, align 4, !tbaa !66
  %9 = icmp eq i32 %2, %3
  br i1 %9, label %.preheader, label %16

.preheader:                                       ; preds = %4
  %10 = getelementptr inbounds nuw i8, ptr %0, i64 880
  %11 = load i32, ptr %10, align 16, !tbaa !65
  %12 = icmp sgt i32 %11, 0
  br i1 %12, label %.lr.ph26.preheader, label %.loopexit

.lr.ph26.preheader:                               ; preds = %.preheader
  %wide.trip.count32 = zext nneg i32 %11 to i64
  br label %.lr.ph26

.lr.ph26:                                         ; preds = %.lr.ph26.preheader, %.lr.ph26
  %indvars.iv29 = phi i64 [ 0, %.lr.ph26.preheader ], [ %indvars.iv.next30, %.lr.ph26 ]
  %13 = getelementptr inbounds nuw float, ptr %1, i64 %indvars.iv29
  %14 = load float, ptr %13, align 4, !tbaa !66
  %15 = fmul nsz float %8, %14
  store float %15, ptr %13, align 4, !tbaa !66
  %indvars.iv.next30 = add nuw nsw i64 %indvars.iv29, 1
  %exitcond33.not = icmp eq i64 %indvars.iv.next30, %wide.trip.count32
  br i1 %exitcond33.not, label %.loopexit, label %.lr.ph26, !llvm.loop !120

16:                                               ; preds = %4
  %17 = getelementptr inbounds nuw i8, ptr %0, i64 884
  %reass.sub = sub i32 %3, %2
  %18 = add i32 %reass.sub, 15
  %19 = sext i32 %18 to i64
  %20 = getelementptr inbounds [31 x float], ptr %17, i64 0, i64 %19
  %21 = load float, ptr %20, align 4, !tbaa !66
  %22 = getelementptr inbounds nuw i8, ptr %0, i64 880
  %23 = load i32, ptr %22, align 16, !tbaa !65
  %24 = icmp sgt i32 %23, 0
  br i1 %24, label %.lr.ph.preheader, label %.loopexit

.lr.ph.preheader:                                 ; preds = %16
  %wide.trip.count = zext nneg i32 %23 to i64
  br label %.lr.ph

.lr.ph:                                           ; preds = %.lr.ph.preheader, %.lr.ph
  %indvars.iv = phi i64 [ 0, %.lr.ph.preheader ], [ %indvars.iv.next, %.lr.ph ]
  %.01923 = phi float [ %8, %.lr.ph.preheader ], [ %28, %.lr.ph ]
  %25 = getelementptr inbounds nuw float, ptr %1, i64 %indvars.iv
  %26 = load float, ptr %25, align 4, !tbaa !66
  %27 = fmul nsz float %.01923, %26
  store float %27, ptr %25, align 4, !tbaa !66
  %28 = fmul nsz float %21, %.01923
  %indvars.iv.next = add nuw nsw i64 %indvars.iv, 1
  %exitcond.not = icmp eq i64 %indvars.iv.next, %wide.trip.count
  br i1 %exitcond.not, label %.loopexit, label %.lr.ph, !llvm.loop !121

.loopexit:                                        ; preds = %.lr.ph, %.lr.ph26, %16, %.preheader
  ret void
}